; Function Attrs: mustprogress uwtable
define hidden void @_ZN5logos5Logos4initERKNS_15LogosParametersE(ptr noundef nonnull align 8 dereferenceable(112) initializes((48, 88)) %0, ptr noundef nonnull readonly align 4 captures(none) dereferenceable(28) %1) local_unnamed_addr #0 align 2 personality ptr @__gxx_personality_v0 {
  %3 = getelementptr inbounds nuw i8, ptr %0, i64 48
  tail call void @llvm.memcpy.p0.p0.i64(ptr noundef nonnull align 8 dereferenceable(28) %3, ptr noundef nonnull align 4 dereferenceable(28) %1, i64 28, i1 false), !tbaa.struct !29
  %4 = getelementptr inbounds nuw i8, ptr %0, i64 76
  store float 0xC00921FB60000000, ptr %4, align 4, !tbaa !9
  %5 = getelementptr inbounds nuw i8, ptr %0, i64 64
  %6 = load float, ptr %5, align 8, !tbaa !30
  %7 = fdiv float %6, 3.000000e+00
  %8 = getelementptr inbounds nuw i8, ptr %0, i64 80
  store float %7, ptr %8, align 8, !tbaa !24
  %9 = fpext float %7 to double
  %10 = fdiv double 0x401921FB54442D18, %9
  %11 = tail call double @llvm.ceil.f64(double %10)
  %12 = fptoui double %11 to i32
  %13 = getelementptr inbounds nuw i8, ptr %0, i64 84
  store i32 %12, ptr %13, align 4, !tbaa !25
  %14 = getelementptr inbounds nuw i8, ptr %0, i64 88
  %15 = zext i32 %12 to i64
  %16 = getelementptr inbounds nuw i8, ptr %0, i64 96
  %17 = load ptr, ptr %16, align 8, !tbaa !31
  %18 = load ptr, ptr %14, align 8, !tbaa !27
  %19 = ptrtoint ptr %17 to i64
  %20 = ptrtoint ptr %18 to i64
  %21 = sub i64 %19, %20
  %22 = ashr exact i64 %21, 2
  %23 = icmp ult i64 %22, %15
  br i1 %23, label %24, label %26

24:                                               ; preds = %2
  %25 = sub nuw nsw i64 %15, %22
  tail call void @_ZNSt6vectorIiSaIiEE17_M_default_appendEm(ptr noundef nonnull align 8 dereferenceable(24) %14, i64 noundef %25)
  %.pre = load ptr, ptr %14, align 8, !tbaa !26
  %.pre3 = load ptr, ptr %16, align 8, !tbaa !26
  %.pre4 = ptrtoint ptr %.pre to i64
  br label %_ZNSt6vectorIiSaIiEE6resizeEm.exit

26:                                               ; preds = %2
  %27 = icmp ugt i64 %22, %15
  br i1 %27, label %28, label %_ZNSt6vectorIiSaIiEE6resizeEm.exit

28:                                               ; preds = %26
  %29 = getelementptr inbounds nuw i32, ptr %18, i64 %15
  %.not.i.i = icmp eq ptr %17, %29
  br i1 %.not.i.i, label %_ZNSt6vectorIiSaIiEE6resizeEm.exit, label %30

30:                                               ; preds = %28
  store ptr %29, ptr %16, align 8, !tbaa !31
  br label %_ZNSt6vectorIiSaIiEE6resizeEm.exit

_ZNSt6vectorIiSaIiEE6resizeEm.exit:               ; preds = %24, %26, %28, %30
  %.pre-phi = phi i64 [ %.pre4, %24 ], [ %20, %26 ], [ %20, %28 ], [ %20, %30 ]
  %31 = phi ptr [ %.pre3, %24 ], [ %17, %26 ], [ %17, %28 ], [ %29, %30 ]
  %32 = phi ptr [ %.pre, %24 ], [ %18, %26 ], [ %18, %28 ], [ %18, %30 ]
  %.not5.i.i.i.i = icmp eq ptr %32, %31
  br i1 %.not5.i.i.i.i, label %_ZSt4fillIN9__gnu_cxx17__normal_iteratorIPiSt6vectorIiSaIiEEEEiEvT_S7_RKT0_.exit, label %.lr.ph.i.i.i.i.preheader

.lr.ph.i.i.i.i.preheader:                         ; preds = %_ZNSt6vectorIiSaIiEE6resizeEm.exit
  %33 = ptrtoint ptr %31 to i64
  %34 = add i64 %33, -4
  %35 = sub i64 %34, %.pre-phi
  %36 = and i64 %35, -4
  %37 = add i64 %36, 4
  tail call void @llvm.memset.p0.i64(ptr align 4 %32, i8 0, i64 %37, i1 false), !tbaa !7
  br label %_ZSt4fillIN9__gnu_cxx17__normal_iteratorIPiSt6vectorIiSaIiEEEEiEvT_S7_RKT0_.exit

_ZSt4fillIN9__gnu_cxx17__normal_iteratorIPiSt6vectorIiSaIiEEEEiEvT_S7_RKT0_.exit: ; preds = %.lr.ph.i.i.i.i.preheader, %_ZNSt6vectorIiSaIiEE6resizeEm.exit
  ret void
}